
build/output.elf:     file format elf32-littlearm


Disassembly of section .init:

00008000 <_start>:
    8000:	ea0000a6 	b	82a0 <main>

00008004 <flashACT>:
    8004:	e59f0080 	ldr	r0, [pc, #128]	; 808c <wait22$+0x10>
    8008:	e3a01001 	mov	r1, #1
    800c:	e1a01901 	lsl	r1, r1, #18
    8010:	e5801004 	str	r1, [r0, #4]
    8014:	e3a01001 	mov	r1, #1
    8018:	e1a01801 	lsl	r1, r1, #16

0000801c <loop1$>:
    801c:	e5801028 	str	r1, [r0, #40]	; 0x28
    8020:	e3a0283f 	mov	r2, #4128768	; 0x3f0000

00008024 <wait1$>:
    8024:	e2422001 	sub	r2, r2, #1
    8028:	e3520000 	cmp	r2, #0
    802c:	1afffffc 	bne	8024 <wait1$>
    8030:	e580101c 	str	r1, [r0, #28]
    8034:	e3a0283f 	mov	r2, #4128768	; 0x3f0000

00008038 <wait2$>:
    8038:	e2422001 	sub	r2, r2, #1
    803c:	e3520000 	cmp	r2, #0
    8040:	1afffffc 	bne	8038 <wait2$>
    8044:	eafffff4 	b	801c <loop1$>

00008048 <flashLED>:
    8048:	e59f003c 	ldr	r0, [pc, #60]	; 808c <wait22$+0x10>
    804c:	e3a01001 	mov	r1, #1
    8050:	e1a01001 	mov	r1, r1
    8054:	e5801004 	str	r1, [r0, #4]
    8058:	e3a01001 	mov	r1, #1
    805c:	e1a01801 	lsl	r1, r1, #16

00008060 <loop2$>:
    8060:	e5801028 	str	r1, [r0, #40]	; 0x28
    8064:	e3a0283f 	mov	r2, #4128768	; 0x3f0000

00008068 <wait21$>:
    8068:	e2422001 	sub	r2, r2, #1
    806c:	e3520000 	cmp	r2, #0
    8070:	1afffffc 	bne	8068 <wait21$>
    8074:	e580101c 	str	r1, [r0, #28]
    8078:	e3a0283f 	mov	r2, #4128768	; 0x3f0000

0000807c <wait22$>:
    807c:	e2422001 	sub	r2, r2, #1
    8080:	e3520000 	cmp	r2, #0
    8084:	1afffffc 	bne	807c <wait22$>
    8088:	eafffff4 	b	8060 <loop2$>
    808c:	20200000 	.word	0x20200000

Disassembly of section .text:

00008090 <GetMailboxBase>:
    8090:	e59f006c 	ldr	r0, [pc, #108]	; 8104 <rightmail$+0x24>
    8094:	e1a0f00e 	mov	pc, lr

00008098 <MailboxWrite>:
    8098:	e310000f 	tst	r0, #15
    809c:	11a0f00e 	movne	pc, lr
    80a0:	e351000f 	cmp	r1, #15
    80a4:	81a0f00e 	movhi	pc, lr
    80a8:	e1a02000 	mov	r2, r0
    80ac:	e52de004 	push	{lr}		; (str lr, [sp, #-4]!)
    80b0:	ebfffff6 	bl	8090 <GetMailboxBase>

000080b4 <wait1$>:
    80b4:	e5903018 	ldr	r3, [r0, #24]
    80b8:	e3130102 	tst	r3, #-2147483648	; 0x80000000
    80bc:	1afffffc 	bne	80b4 <wait1$>
    80c0:	e0822001 	add	r2, r2, r1
    80c4:	e5802020 	str	r2, [r0, #32]
    80c8:	e49df004 	pop	{pc}		; (ldr pc, [sp], #4)

000080cc <MailboxRead>:
    80cc:	e350000f 	cmp	r0, #15
    80d0:	81a0f00e 	movhi	pc, lr
    80d4:	e1a01000 	mov	r1, r0
    80d8:	e52de004 	push	{lr}		; (str lr, [sp, #-4]!)
    80dc:	ebffffeb 	bl	8090 <GetMailboxBase>

000080e0 <rightmail$>:
    80e0:	e5902018 	ldr	r2, [r0, #24]
    80e4:	e3120101 	tst	r2, #1073741824	; 0x40000000
    80e8:	1afffffc 	bne	80e0 <rightmail$>
    80ec:	e5902000 	ldr	r2, [r0]
    80f0:	e202300f 	and	r3, r2, #15
    80f4:	e1330001 	teq	r3, r1
    80f8:	1afffff8 	bne	80e0 <rightmail$>
    80fc:	e3c2000f 	bic	r0, r2, #15
    8100:	e49df004 	pop	{pc}		; (ldr pc, [sp], #4)
    8104:	2000b880 	.word	0x2000b880

00008108 <SetForeColour>:
    8108:	e3500801 	cmp	r0, #65536	; 0x10000
    810c:	81a0f00e 	movhi	pc, lr
    8110:	01a0f00e 	moveq	pc, lr
    8114:	e59f10d4 	ldr	r1, [pc, #212]	; 81f0 <pixelLoop$+0x34>
    8118:	e1c100b0 	strh	r0, [r1]
    811c:	e1a0f00e 	mov	pc, lr

00008120 <SetGraphicsAddress>:
    8120:	e59f10cc 	ldr	r1, [pc, #204]	; 81f4 <pixelLoop$+0x38>
    8124:	e5810000 	str	r0, [r1]
    8128:	e1a0f00e 	mov	pc, lr

0000812c <DrawPixel>:
    812c:	e59f20c0 	ldr	r2, [pc, #192]	; 81f4 <pixelLoop$+0x38>
    8130:	e5922000 	ldr	r2, [r2]
    8134:	e5923004 	ldr	r3, [r2, #4]
    8138:	e2433001 	sub	r3, r3, #1
    813c:	e1510003 	cmp	r1, r3
    8140:	81a0f00e 	movhi	pc, lr
    8144:	e5923000 	ldr	r3, [r2]
    8148:	e2433001 	sub	r3, r3, #1
    814c:	e1500003 	cmp	r0, r3
    8150:	81a0f00e 	movhi	pc, lr
    8154:	e5922020 	ldr	r2, [r2, #32]
    8158:	e2833001 	add	r3, r3, #1
    815c:	e0200391 	mla	r0, r1, r3, r0
    8160:	e0822080 	add	r2, r2, r0, lsl #1
    8164:	e59f3084 	ldr	r3, [pc, #132]	; 81f0 <pixelLoop$+0x34>
    8168:	e1d330b0 	ldrh	r3, [r3]
    816c:	e1c230b0 	strh	r3, [r2]
    8170:	e1a0f00e 	mov	pc, lr

00008174 <DrawLine>:
    8174:	e92d5ff0 	push	{r4, r5, r6, r7, r8, r9, sl, fp, ip, lr}
    8178:	e1a09000 	mov	r9, r0
    817c:	e1a0a002 	mov	sl, r2
    8180:	e1a0b001 	mov	fp, r1
    8184:	e1a0c003 	mov	ip, r3
    8188:	e159000a 	cmp	r9, sl
    818c:	c049400a 	subgt	r4, r9, sl
    8190:	c3e06000 	mvngt	r6, #0
    8194:	d04a4009 	suble	r4, sl, r9
    8198:	d3a06001 	movle	r6, #1
    819c:	e15b000c 	cmp	fp, ip
    81a0:	c04c500b 	subgt	r5, ip, fp
    81a4:	c3e07000 	mvngt	r7, #0
    81a8:	d04b500c 	suble	r5, fp, ip
    81ac:	d3a07001 	movle	r7, #1
    81b0:	e0848005 	add	r8, r4, r5
    81b4:	e08aa006 	add	sl, sl, r6
    81b8:	e08cc007 	add	ip, ip, r7

000081bc <pixelLoop$>:
    81bc:	e139000a 	teq	r9, sl
    81c0:	113b000c 	teqne	fp, ip
    81c4:	08bd9ff0 	popeq	{r4, r5, r6, r7, r8, r9, sl, fp, ip, pc}
    81c8:	e1a00009 	mov	r0, r9
    81cc:	e1a0100b 	mov	r1, fp
    81d0:	ebffffd5 	bl	812c <DrawPixel>
    81d4:	e1550088 	cmp	r5, r8, lsl #1
    81d8:	d0888005 	addle	r8, r8, r5
    81dc:	d0899006 	addle	r9, r9, r6
    81e0:	e1540088 	cmp	r4, r8, lsl #1
    81e4:	a0888004 	addge	r8, r8, r4
    81e8:	a08bb007 	addge	fp, fp, r7
    81ec:	eafffff2 	b	81bc <pixelLoop$>
    81f0:	00009000 	.word	0x00009000
    81f4:	00009004 	.word	0x00009004

000081f8 <InitialiseFrameBuffer>:
    81f8:	e3500a01 	cmp	r0, #4096	; 0x1000
    81fc:	93510a01 	cmpls	r1, #4096	; 0x1000
    8200:	93520020 	cmpls	r2, #32
    8204:	83a00000 	movhi	r0, #0
    8208:	81a0f00e 	movhi	pc, lr
    820c:	e92d4010 	push	{r4, lr}
    8210:	e59f403c 	ldr	r4, [pc, #60]	; 8254 <InitialiseFrameBuffer+0x5c>
    8214:	e5840000 	str	r0, [r4]
    8218:	e5841004 	str	r1, [r4, #4]
    821c:	e5840008 	str	r0, [r4, #8]
    8220:	e584100c 	str	r1, [r4, #12]
    8224:	e5842014 	str	r2, [r4, #20]
    8228:	e1a00004 	mov	r0, r4
    822c:	e2800101 	add	r0, r0, #1073741824	; 0x40000000
    8230:	e3a01001 	mov	r1, #1
    8234:	ebffff97 	bl	8098 <MailboxWrite>
    8238:	e3a00001 	mov	r0, #1
    823c:	ebffffa2 	bl	80cc <MailboxRead>
    8240:	e3300000 	teq	r0, #0
    8244:	13a00000 	movne	r0, #0
    8248:	18bd8010 	popne	{r4, pc}
    824c:	e1a00004 	mov	r0, r4
    8250:	e8bd8010 	pop	{r4, pc}
    8254:	0000a000 	.word	0x0000a000
    8258:	e59f003c 	ldr	r0, [pc, #60]	; 829c <wait2$+0x10>
    825c:	e3a01001 	mov	r1, #1
    8260:	e1a01901 	lsl	r1, r1, #18
    8264:	e5801004 	str	r1, [r0, #4]
    8268:	e3a01001 	mov	r1, #1
    826c:	e1a01801 	lsl	r1, r1, #16

00008270 <loop1$>:
    8270:	e5801028 	str	r1, [r0, #40]	; 0x28
    8274:	e3a0283f 	mov	r2, #4128768	; 0x3f0000

00008278 <wait1$>:
    8278:	e2422001 	sub	r2, r2, #1
    827c:	e3520000 	cmp	r2, #0
    8280:	1afffffc 	bne	8278 <wait1$>
    8284:	e580101c 	str	r1, [r0, #28]
    8288:	e3a0283f 	mov	r2, #4128768	; 0x3f0000

0000828c <wait2$>:
    828c:	e2422001 	sub	r2, r2, #1
    8290:	e3520000 	cmp	r2, #0
    8294:	1afffffc 	bne	828c <wait2$>
    8298:	eafffff4 	b	8270 <loop1$>
    829c:	20200000 	.word	0x20200000

000082a0 <main>:
    82a0:	e3a0d902 	mov	sp, #32768	; 0x8000
    82a4:	e3a00b01 	mov	r0, #1024	; 0x400
    82a8:	e3a01c03 	mov	r1, #768	; 0x300
    82ac:	e3a02010 	mov	r2, #16
    82b0:	ebffffd0 	bl	81f8 <InitialiseFrameBuffer>
    82b4:	e3300000 	teq	r0, #0
    82b8:	1a000008 	bne	82e0 <no_error$>
    82bc:	e3a00010 	mov	r0, #16
    82c0:	e3a01001 	mov	r1, #1
    82c4:	ebffff4e 	bl	8004 <flashACT>
    82c8:	ebffff5e 	bl	8048 <flashLED>
    82cc:	e3a00010 	mov	r0, #16
    82d0:	e3a01001 	mov	r1, #1
    82d4:	ebffff4a 	bl	8004 <flashACT>
    82d8:	ebffff5a 	bl	8048 <flashLED>

000082dc <error$>:
    82dc:	eafffffe 	b	82dc <error$>

000082e0 <no_error$>:
    82e0:	e1a04000 	mov	r4, r0

000082e4 <render$>:
    82e4:	e5943020 	ldr	r3, [r4, #32]
    82e8:	e3a01c03 	mov	r1, #768	; 0x300

000082ec <draw_row$>:
    82ec:	e3a02b01 	mov	r2, #1024	; 0x400

000082f0 <draw_pixels$>:
    82f0:	e1c300b0 	strh	r0, [r3]
    82f4:	e2833002 	add	r3, r3, #2
    82f8:	e2422001 	sub	r2, r2, #1
    82fc:	e3320000 	teq	r2, #0
    8300:	1afffffa 	bne	82f0 <draw_pixels$>
    8304:	e2411001 	sub	r1, r1, #1
    8308:	e2800001 	add	r0, r0, #1
    830c:	e3310000 	teq	r1, #0
    8310:	1afffff5 	bne	82ec <draw_row$>
    8314:	eafffff2 	b	82e4 <render$>
